target datalayout = "e-m:e-p270:32:32-p271:32:32-p272:64:64-i64:64-i128:128-f80:128-n8:16:32:64-S128"
target triple = "x86_64-pc-linux-gnu"

%class.QString = type { %struct.QArrayDataPointer }
%struct.QArrayDataPointer = type { ptr, ptr, i64 }
%class.VoipCallsDialog = type { %class.WiresharkDialog.base, i8, ptr, ptr, ptr, ptr, ptr, %struct._voip_calls_tapinfo, ptr, ptr, ptr, ptr, ptr, i8, ptr }
%class.WiresharkDialog.base = type <{ %class.GeometryStateDialog, ptr, i8, [7 x i8], %class.QString, %class.QList, i32, i8 }>
%class.GeometryStateDialog = type { %class.QDialog, %class.QString }
%class.QDialog = type { %class.QWidget }
%class.QWidget = type { %class.QObject, %class.QPaintDevice.base, ptr }
%class.QObject = type { ptr, %class.QScopedPointer }
%class.QScopedPointer = type { ptr }
%class.QPaintDevice.base = type <{ ptr, i16 }>
%class.QList = type { %struct.QArrayDataPointer.0 }
%struct.QArrayDataPointer.0 = type { ptr, ptr, i64 }
%struct._voip_calls_tapinfo = type { ptr, ptr, ptr, ptr, i32, ptr, [1 x ptr], i32, ptr, i32, i32, i32, ptr, ptr, i32, ptr, i32, i8, i32, ptr, i32, i32, i32, i8, i32, ptr, ptr, ptr, i8, i32, i32, i32, i16, i32, i32, i32, i32, i32, i32, i32, i32, i32 }

; Function Attrs: mustprogress uwtable
define void @_ZN15VoipCallsDialog20on_buttonBox_clickedEP15QAbstractButton(ptr noundef nonnull align 8 dereferenceable(480) %0, ptr noundef %1) #0 align 2 {
  %3 = alloca ptr, align 8
  %4 = alloca ptr, align 8
  store ptr %0, ptr %3, align 8
  store ptr %1, ptr %4, align 8
  %5 = load ptr, ptr %3, align 8
  %6 = load ptr, ptr %4, align 8
  %7 = getelementptr inbounds %class.VoipCallsDialog, ptr %5, i32 0, i32 9
  %8 = load ptr, ptr %7, align 8
  %9 = icmp eq ptr %6, %8
  br i1 %9, label %10, label %11

10:                                               ; preds = %2
  call void @_ZN15VoipCallsDialog13prepareFilterEv(ptr noundef nonnull align 8 dereferenceable(480) %5)
  br label %18

11:                                               ; preds = %2
  %12 = load ptr, ptr %4, align 8
  %13 = getelementptr inbounds %class.VoipCallsDialog, ptr %5, i32 0, i32 10
  %14 = load ptr, ptr %13, align 8
  %15 = icmp eq ptr %12, %14
  br i1 %15, label %16, label %17

16:                                               ; preds = %11
  call void @_ZN15VoipCallsDialog12showSequenceEv(ptr noundef nonnull align 8 dereferenceable(480) %5)
  br label %17

17:                                               ; preds = %16, %11
  br label %18

18:                                               ; preds = %17, %10
  ret void
}