; Function Attrs: mustprogress uwtable
define void @_ZN15VoipCallsDialog20on_buttonBox_clickedEP15QAbstractButton(ptr noundef nonnull align 8 dereferenceable(480) %0, ptr noundef readnone %1) local_unnamed_addr #0 align 2 {
  %3 = getelementptr inbounds i8, ptr %0, i64 432
  %4 = load ptr, ptr %3, align 8
  %5 = icmp eq ptr %4, %1
  br i1 %5, label %6, label %7

6:                                                ; preds = %2
  tail call void @_ZN15VoipCallsDialog13prepareFilterEv(ptr noundef nonnull align 8 dereferenceable(480) %0)
  br label %12

7:                                                ; preds = %2
  %8 = getelementptr inbounds i8, ptr %0, i64 440
  %9 = load ptr, ptr %8, align 8
  %10 = icmp eq ptr %9, %1
  br i1 %10, label %11, label %12

11:                                               ; preds = %7
  tail call void @_ZN15VoipCallsDialog12showSequenceEv(ptr noundef nonnull align 8 dereferenceable(480) %0)
  br label %12

12:                                               ; preds = %7, %11, %6
  ret void
}